target datalayout = "e-m:e-p270:32:32-p271:32:32-p272:64:64-i64:64-i128:128-f80:128-n8:16:32:64-S128"
target triple = "x86_64-pc-linux-gnu"

%struct.expert_field = type { i32, i32 }

@hf_nan_attr_ndlqos_min_time_slots = internal global i32 0, align 4
@hf_nan_attr_ndlqos_max_latency = internal global i32 0, align 4
@ei_nan_elem_len_invalid = internal global %struct.expert_field zeroinitializer, align 4

; Function Attrs: null_pointer_is_valid sspstrong uwtable
define internal void @dissect_attr_ndl_qos(ptr noundef %0, ptr noundef %1, i32 noundef %2, i16 noundef zeroext %3, ptr noundef %4) #0 {
  %6 = alloca ptr, align 8
  %7 = alloca ptr, align 8
  %8 = alloca i32, align 4
  %9 = alloca i16, align 2
  %10 = alloca ptr, align 8
  %11 = alloca i32, align 4
  store ptr %0, ptr %6, align 8
  store ptr %1, ptr %7, align 8
  store i32 %2, ptr %8, align 4
  store i16 %3, ptr %9, align 2
  store ptr %4, ptr %10, align 8
  %12 = load i16, ptr %9, align 2
  %13 = zext i16 %12 to i32
  %14 = icmp ne i32 %13, 3
  br i1 %14, label %15, label %19

15:                                               ; preds = %5
  %16 = load ptr, ptr %10, align 8
  %17 = load ptr, ptr %6, align 8
  %18 = call ptr @expert_add_info(ptr noundef %16, ptr noundef %17, ptr noundef @ei_nan_elem_len_invalid)
  br label %34

19:                                               ; preds = %5
  call void @llvm.lifetime.start.p0(i64 4, ptr %11) #5
  %20 = load i32, ptr %8, align 4
  %21 = add i32 %20, 3
  store i32 %21, ptr %11, align 4
  %22 = load ptr, ptr %6, align 8
  %23 = load i32, ptr @hf_nan_attr_ndlqos_min_time_slots, align 4
  %24 = load ptr, ptr %7, align 8
  %25 = load i32, ptr %11, align 4
  %26 = call ptr @proto_tree_add_item(ptr noundef %22, i32 noundef %23, ptr noundef %24, i32 noundef %25, i32 noundef 1, i32 noundef 0)
  %27 = load i32, ptr %11, align 4
  %28 = add i32 %27, 1
  store i32 %28, ptr %11, align 4
  %29 = load ptr, ptr %6, align 8
  %30 = load i32, ptr @hf_nan_attr_ndlqos_max_latency, align 4
  %31 = load ptr, ptr %7, align 8
  %32 = load i32, ptr %11, align 4
  %33 = call ptr @proto_tree_add_item(ptr noundef %29, i32 noundef %30, ptr noundef %31, i32 noundef %32, i32 noundef 2, i32 noundef -2147483648)
  call void @llvm.lifetime.end.p0(i64 4, ptr %11) #5
  br label %34

34:                                               ; preds = %19, %15
  ret void
}